; Function Attrs: nounwind uwtable
define dso_local void @uv_disable_stdio_inheritance() local_unnamed_addr #0 {
  br label %1

1:                                                ; preds = %uv__cloexec.exit.thread, %0
  %.0 = phi i32 [ 0, %0 ], [ %11, %uv__cloexec.exit.thread ]
  br label %2

2:                                                ; preds = %4, %1
  %3 = tail call i32 (i32, i32, ...) @fcntl64(i32 noundef %.0, i32 noundef 2, i32 noundef 1) #23
  switch i32 %3, label %..critedge_crit_edge.i [
    i32 -1, label %4
    i32 0, label %uv__cloexec.exit.thread
  ]

..critedge_crit_edge.i:                           ; preds = %2
  %.pre.i = tail call ptr @__errno_location() #24
  %.pre = load i32, ptr %.pre.i, align 4
  br label %uv__cloexec.exit

4:                                                ; preds = %2
  %5 = tail call ptr @__errno_location() #24
  %6 = load i32, ptr %5, align 4
  %7 = icmp eq i32 %6, 4
  br i1 %7, label %2, label %uv__cloexec.exit

uv__cloexec.exit:                                 ; preds = %4, %..critedge_crit_edge.i
  %8 = phi i32 [ %.pre, %..critedge_crit_edge.i ], [ %6, %4 ]
  %9 = icmp ne i32 %8, 0
  %10 = icmp samesign ugt i32 %.0, 15
  %or.cond = select i1 %9, i1 %10, i1 false
  br i1 %or.cond, label %12, label %uv__cloexec.exit.thread

uv__cloexec.exit.thread:                          ; preds = %2, %uv__cloexec.exit
  %11 = add nuw nsw i32 %.0, 1
  br label %1

12:                                               ; preds = %uv__cloexec.exit
  ret void
}